target datalayout = "e-m:e-p270:32:32-p271:32:32-p272:64:64-i64:64-i128:128-f80:128-n8:16:32:64-S128"
target triple = "x86_64-pc-linux-gnu"

%struct.ossl_cc_newreno_st = type { ptr, ptr, i64, i64, i32, i32, i32, i64, i64, i64, i64, i64, %struct.OSSL_TIME, i32, %struct.OSSL_TIME, i32, ptr, ptr, ptr, ptr, ptr }
%struct.OSSL_TIME = type { i64 }
%struct.ossl_cc_loss_info_st = type { %struct.OSSL_TIME, i64 }

; Function Attrs: nounwind uwtable
define internal void @newreno_update_diag(ptr noundef %0) #0 {
  %2 = alloca ptr, align 8
  store ptr %0, ptr %2, align 8, !tbaa !7
  %3 = load ptr, ptr %2, align 8, !tbaa !7
  %4 = getelementptr inbounds nuw %struct.ossl_cc_newreno_st, ptr %3, i32 0, i32 16
  %5 = load ptr, ptr %4, align 8, !tbaa !34
  %6 = icmp ne ptr %5, null
  br i1 %6, label %7, label %14

7:                                                ; preds = %1
  %8 = load ptr, ptr %2, align 8, !tbaa !7
  %9 = getelementptr inbounds nuw %struct.ossl_cc_newreno_st, ptr %8, i32 0, i32 7
  %10 = load i64, ptr %9, align 8, !tbaa !44
  %11 = load ptr, ptr %2, align 8, !tbaa !7
  %12 = getelementptr inbounds nuw %struct.ossl_cc_newreno_st, ptr %11, i32 0, i32 16
  %13 = load ptr, ptr %12, align 8, !tbaa !34
  store i64 %10, ptr %13, align 8, !tbaa !28
  br label %14

14:                                               ; preds = %7, %1
  %15 = load ptr, ptr %2, align 8, !tbaa !7
  %16 = getelementptr inbounds nuw %struct.ossl_cc_newreno_st, ptr %15, i32 0, i32 17
  %17 = load ptr, ptr %16, align 8, !tbaa !35
  %18 = icmp ne ptr %17, null
  br i1 %18, label %19, label %26

19:                                               ; preds = %14
  %20 = load ptr, ptr %2, align 8, !tbaa !7
  %21 = getelementptr inbounds nuw %struct.ossl_cc_newreno_st, ptr %20, i32 0, i32 9
  %22 = load i64, ptr %21, align 8, !tbaa !23
  %23 = load ptr, ptr %2, align 8, !tbaa !7
  %24 = getelementptr inbounds nuw %struct.ossl_cc_newreno_st, ptr %23, i32 0, i32 17
  %25 = load ptr, ptr %24, align 8, !tbaa !35
  store i64 %22, ptr %25, align 8, !tbaa !28
  br label %26

26:                                               ; preds = %19, %14
  %27 = load ptr, ptr %2, align 8, !tbaa !7
  %28 = getelementptr inbounds nuw %struct.ossl_cc_newreno_st, ptr %27, i32 0, i32 18
  %29 = load ptr, ptr %28, align 8, !tbaa !36
  %30 = icmp ne ptr %29, null
  br i1 %30, label %31, label %38

31:                                               ; preds = %26
  %32 = load ptr, ptr %2, align 8, !tbaa !7
  %33 = getelementptr inbounds nuw %struct.ossl_cc_newreno_st, ptr %32, i32 0, i32 3
  %34 = load i64, ptr %33, align 8, !tbaa !52
  %35 = load ptr, ptr %2, align 8, !tbaa !7
  %36 = getelementptr inbounds nuw %struct.ossl_cc_newreno_st, ptr %35, i32 0, i32 18
  %37 = load ptr, ptr %36, align 8, !tbaa !36
  store i64 %34, ptr %37, align 8, !tbaa !28
  br label %38

38:                                               ; preds = %31, %26
  %39 = load ptr, ptr %2, align 8, !tbaa !7
  %40 = getelementptr inbounds nuw %struct.ossl_cc_newreno_st, ptr %39, i32 0, i32 19
  %41 = load ptr, ptr %40, align 8, !tbaa !37
  %42 = icmp ne ptr %41, null
  br i1 %42, label %43, label %50

43:                                               ; preds = %38
  %44 = load ptr, ptr %2, align 8, !tbaa !7
  %45 = getelementptr inbounds nuw %struct.ossl_cc_newreno_st, ptr %44, i32 0, i32 8
  %46 = load i64, ptr %45, align 8, !tbaa !24
  %47 = load ptr, ptr %2, align 8, !tbaa !7
  %48 = getelementptr inbounds nuw %struct.ossl_cc_newreno_st, ptr %47, i32 0, i32 19
  %49 = load ptr, ptr %48, align 8, !tbaa !37
  store i64 %46, ptr %49, align 8, !tbaa !28
  br label %50

50:                                               ; preds = %43, %38
  %51 = load ptr, ptr %2, align 8, !tbaa !7
  %52 = getelementptr inbounds nuw %struct.ossl_cc_newreno_st, ptr %51, i32 0, i32 20
  %53 = load ptr, ptr %52, align 8, !tbaa !39
  %54 = icmp ne ptr %53, null
  br i1 %54, label %55, label %82

55:                                               ; preds = %50
  %56 = load ptr, ptr %2, align 8, !tbaa !7
  %57 = getelementptr inbounds nuw %struct.ossl_cc_newreno_st, ptr %56, i32 0, i32 15
  %58 = load i32, ptr %57, align 8, !tbaa !30
  %59 = icmp ne i32 %58, 0
  br i1 %59, label %60, label %64

60:                                               ; preds = %55
  %61 = load ptr, ptr %2, align 8, !tbaa !7
  %62 = getelementptr inbounds nuw %struct.ossl_cc_newreno_st, ptr %61, i32 0, i32 20
  %63 = load ptr, ptr %62, align 8, !tbaa !39
  store i32 82, ptr %63, align 4, !tbaa !49
  br label %81

64:                                               ; preds = %55
  %65 = load ptr, ptr %2, align 8, !tbaa !7
  %66 = getelementptr inbounds nuw %struct.ossl_cc_newreno_st, ptr %65, i32 0, i32 9
  %67 = load i64, ptr %66, align 8, !tbaa !23
  %68 = load ptr, ptr %2, align 8, !tbaa !7
  %69 = getelementptr inbounds nuw %struct.ossl_cc_newreno_st, ptr %68, i32 0, i32 10
  %70 = load i64, ptr %69, align 8, !tbaa !26
  %71 = icmp ult i64 %67, %70
  br i1 %71, label %72, label %76

72:                                               ; preds = %64
  %73 = load ptr, ptr %2, align 8, !tbaa !7
  %74 = getelementptr inbounds nuw %struct.ossl_cc_newreno_st, ptr %73, i32 0, i32 20
  %75 = load ptr, ptr %74, align 8, !tbaa !39
  store i32 83, ptr %75, align 4, !tbaa !49
  br label %80

76:                                               ; preds = %64
  %77 = load ptr, ptr %2, align 8, !tbaa !7
  %78 = getelementptr inbounds nuw %struct.ossl_cc_newreno_st, ptr %77, i32 0, i32 20
  %79 = load ptr, ptr %78, align 8, !tbaa !39
  store i32 65, ptr %79, align 4, !tbaa !49
  br label %80

80:                                               ; preds = %76, %72
  br label %81

81:                                               ; preds = %80, %60
  br label %82

82:                                               ; preds = %81, %50
  ret void
}

; Function Attrs: inlinehint nounwind uwtable
define internal i64 @ossl_time_max(i64 %0, i64 %1) #3 {
  %3 = alloca %struct.OSSL_TIME, align 8
  %4 = alloca %struct.OSSL_TIME, align 8
  %5 = alloca %struct.OSSL_TIME, align 8
  %6 = getelementptr inbounds nuw %struct.OSSL_TIME, ptr %4, i32 0, i32 0
  store i64 %0, ptr %6, align 8
  %7 = getelementptr inbounds nuw %struct.OSSL_TIME, ptr %5, i32 0, i32 0
  store i64 %1, ptr %7, align 8
  %8 = getelementptr inbounds nuw %struct.OSSL_TIME, ptr %4, i32 0, i32 0
  %9 = load i64, ptr %8, align 8, !tbaa !53
  %10 = getelementptr inbounds nuw %struct.OSSL_TIME, ptr %5, i32 0, i32 0
  %11 = load i64, ptr %10, align 8, !tbaa !53
  %12 = icmp ugt i64 %9, %11
  br i1 %12, label %13, label %14

13:                                               ; preds = %2
  call void @llvm.memcpy.p0.p0.i64(ptr align 8 %3, ptr align 8 %4, i64 8, i1 false), !tbaa.struct !27
  br label %15

14:                                               ; preds = %2
  call void @llvm.memcpy.p0.p0.i64(ptr align 8 %3, ptr align 8 %5, i64 8, i1 false), !tbaa.struct !27
  br label %15

15:                                               ; preds = %14, %13
  %16 = getelementptr inbounds nuw %struct.OSSL_TIME, ptr %3, i32 0, i32 0
  %17 = load i64, ptr %16, align 8
  ret i64 %17
}

; Function Attrs: inlinehint nounwind uwtable
define internal i32 @ossl_time_compare(i64 %0, i64 %1) #3 {
  %3 = alloca i32, align 4
  %4 = alloca %struct.OSSL_TIME, align 8
  %5 = alloca %struct.OSSL_TIME, align 8
  %6 = getelementptr inbounds nuw %struct.OSSL_TIME, ptr %4, i32 0, i32 0
  store i64 %0, ptr %6, align 8
  %7 = getelementptr inbounds nuw %struct.OSSL_TIME, ptr %5, i32 0, i32 0
  store i64 %1, ptr %7, align 8
  %8 = getelementptr inbounds nuw %struct.OSSL_TIME, ptr %4, i32 0, i32 0
  %9 = load i64, ptr %8, align 8, !tbaa !53
  %10 = getelementptr inbounds nuw %struct.OSSL_TIME, ptr %5, i32 0, i32 0
  %11 = load i64, ptr %10, align 8, !tbaa !53
  %12 = icmp ugt i64 %9, %11
  br i1 %12, label %13, label %14

13:                                               ; preds = %2
  store i32 1, ptr %3, align 4
  br label %22

14:                                               ; preds = %2
  %15 = getelementptr inbounds nuw %struct.OSSL_TIME, ptr %4, i32 0, i32 0
  %16 = load i64, ptr %15, align 8, !tbaa !53
  %17 = getelementptr inbounds nuw %struct.OSSL_TIME, ptr %5, i32 0, i32 0
  %18 = load i64, ptr %17, align 8, !tbaa !53
  %19 = icmp ult i64 %16, %18
  br i1 %19, label %20, label %21

20:                                               ; preds = %14
  store i32 -1, ptr %3, align 4
  br label %22

21:                                               ; preds = %14
  store i32 0, ptr %3, align 4
  br label %22

22:                                               ; preds = %21, %20, %13
  %23 = load i32, ptr %3, align 4
  ret i32 %23
}

; Function Attrs: nounwind uwtable
define internal i32 @newreno_on_data_lost(ptr noundef %0, ptr noundef %1) #0 {
  %3 = alloca i32, align 4
  %4 = alloca ptr, align 8
  %5 = alloca ptr, align 8
  %6 = alloca ptr, align 8
  %7 = alloca i32, align 4
  %8 = alloca %struct.OSSL_TIME, align 8
  store ptr %0, ptr %4, align 8, !tbaa !17
  store ptr %1, ptr %5, align 8, !tbaa !45
  call void @llvm.lifetime.start.p0(i64 8, ptr %6) #6
  %9 = load ptr, ptr %4, align 8, !tbaa !17
  store ptr %9, ptr %6, align 8, !tbaa !7
  %10 = load ptr, ptr %5, align 8, !tbaa !45
  %11 = getelementptr inbounds nuw %struct.ossl_cc_loss_info_st, ptr %10, i32 0, i32 1
  %12 = load i64, ptr %11, align 8, !tbaa !47
  %13 = load ptr, ptr %6, align 8, !tbaa !7
  %14 = getelementptr inbounds nuw %struct.ossl_cc_newreno_st, ptr %13, i32 0, i32 8
  %15 = load i64, ptr %14, align 8, !tbaa !24
  %16 = icmp ugt i64 %12, %15
  br i1 %16, label %17, label %18

17:                                               ; preds = %2
  store i32 0, ptr %3, align 4
  store i32 1, ptr %7, align 4
  br label %62

18:                                               ; preds = %2
  %19 = load ptr, ptr %5, align 8, !tbaa !45
  %20 = getelementptr inbounds nuw %struct.ossl_cc_loss_info_st, ptr %19, i32 0, i32 1
  %21 = load i64, ptr %20, align 8, !tbaa !47
  %22 = load ptr, ptr %6, align 8, !tbaa !7
  %23 = getelementptr inbounds nuw %struct.ossl_cc_newreno_st, ptr %22, i32 0, i32 8
  %24 = load i64, ptr %23, align 8, !tbaa !24
  %25 = sub i64 %24, %21
  store i64 %25, ptr %23, align 8, !tbaa !24
  %26 = load ptr, ptr %6, align 8, !tbaa !7
  %27 = getelementptr inbounds nuw %struct.ossl_cc_newreno_st, ptr %26, i32 0, i32 13
  %28 = load i32, ptr %27, align 8, !tbaa !29
  %29 = icmp ne i32 %28, 0
  br i1 %29, label %47, label %30

30:                                               ; preds = %18
  %31 = load ptr, ptr %5, align 8, !tbaa !45
  %32 = getelementptr inbounds nuw %struct.ossl_cc_loss_info_st, ptr %31, i32 0, i32 0
  %33 = load ptr, ptr %6, align 8, !tbaa !7
  %34 = getelementptr inbounds nuw %struct.ossl_cc_newreno_st, ptr %33, i32 0, i32 14
  %35 = getelementptr inbounds nuw %struct.OSSL_TIME, ptr %32, i32 0, i32 0
  %36 = load i64, ptr %35, align 8
  %37 = getelementptr inbounds nuw %struct.OSSL_TIME, ptr %34, i32 0, i32 0
  %38 = load i64, ptr %37, align 8
  %39 = call i32 @ossl_time_compare(i64 %36, i64 %38)
  %40 = icmp sle i32 %39, 0
  br i1 %40, label %41, label %42

41:                                               ; preds = %30
  br label %60

42:                                               ; preds = %30
  %43 = load ptr, ptr %6, align 8, !tbaa !7
  %44 = getelementptr inbounds nuw %struct.ossl_cc_newreno_st, ptr %43, i32 0, i32 13
  store i32 1, ptr %44, align 8, !tbaa !29
  %45 = load ptr, ptr %6, align 8, !tbaa !7
  %46 = getelementptr inbounds nuw %struct.ossl_cc_newreno_st, ptr %45, i32 0, i32 11
  store i64 0, ptr %46, align 8, !tbaa !25
  br label %47

47:                                               ; preds = %42, %18
  %48 = load ptr, ptr %6, align 8, !tbaa !7
  %49 = getelementptr inbounds nuw %struct.ossl_cc_newreno_st, ptr %48, i32 0, i32 14
  call void @llvm.lifetime.start.p0(i64 8, ptr %8) #6
  %50 = load ptr, ptr %6, align 8, !tbaa !7
  %51 = getelementptr inbounds nuw %struct.ossl_cc_newreno_st, ptr %50, i32 0, i32 14
  %52 = load ptr, ptr %5, align 8, !tbaa !45
  %53 = getelementptr inbounds nuw %struct.ossl_cc_loss_info_st, ptr %52, i32 0, i32 0
  %54 = getelementptr inbounds nuw %struct.OSSL_TIME, ptr %51, i32 0, i32 0
  %55 = load i64, ptr %54, align 8
  %56 = getelementptr inbounds nuw %struct.OSSL_TIME, ptr %53, i32 0, i32 0
  %57 = load i64, ptr %56, align 8
  %58 = call i64 @ossl_time_max(i64 %55, i64 %57)
  %59 = getelementptr inbounds nuw %struct.OSSL_TIME, ptr %8, i32 0, i32 0
  store i64 %58, ptr %59, align 8
  call void @llvm.memcpy.p0.p0.i64(ptr align 8 %49, ptr align 8 %8, i64 8, i1 false), !tbaa.struct !27
  call void @llvm.lifetime.end.p0(i64 8, ptr %8) #6
  br label %60

60:                                               ; preds = %47, %41
  %61 = load ptr, ptr %6, align 8, !tbaa !7
  call void @newreno_update_diag(ptr noundef %61)
  store i32 1, ptr %3, align 4
  store i32 1, ptr %7, align 4
  br label %62

62:                                               ; preds = %60, %17
  call void @llvm.lifetime.end.p0(i64 8, ptr %6) #6
  %63 = load i32, ptr %3, align 4
  ret i32 %63
}