; Function Attrs: mustprogress nofree norecurse nosync nounwind willreturn memory(write, argmem: readwrite, inaccessiblemem: none) uwtable
define internal range(i32 0, 2) i32 @newreno_on_data_lost(ptr noundef captures(none) %0, ptr noundef readonly captures(none) %1) #3 {
  %3 = getelementptr inbounds nuw i8, ptr %1, i64 8
  %4 = load i64, ptr %3, align 8, !tbaa !41
  %5 = getelementptr inbounds nuw i8, ptr %0, i64 56
  %6 = load i64, ptr %5, align 8, !tbaa !23
  %7 = icmp ugt i64 %4, %6
  br i1 %7, label %newreno_update_diag.exit, label %8

8:                                                ; preds = %2
  %9 = sub nuw i64 %6, %4
  store i64 %9, ptr %5, align 8, !tbaa !23
  %10 = getelementptr inbounds nuw i8, ptr %0, i64 96
  %11 = load i32, ptr %10, align 8, !tbaa !32
  %.not = icmp eq i32 %11, 0
  %12 = getelementptr inbounds nuw i8, ptr %0, i64 104
  br i1 %.not, label %13, label %._crit_edge

._crit_edge:                                      ; preds = %8
  %.pre = load i64, ptr %12, align 8
  br label %18

13:                                               ; preds = %8
  %14 = load i64, ptr %1, align 8
  %15 = load i64, ptr %12, align 8
  %.not17 = icmp ugt i64 %14, %15
  br i1 %.not17, label %16, label %22

16:                                               ; preds = %13
  store i32 1, ptr %10, align 8, !tbaa !32
  %17 = getelementptr inbounds nuw i8, ptr %0, i64 80
  store i64 0, ptr %17, align 8, !tbaa !31
  br label %18

18:                                               ; preds = %._crit_edge, %16
  %19 = phi i64 [ %.pre, %._crit_edge ], [ %15, %16 ]
  %20 = getelementptr inbounds nuw i8, ptr %0, i64 104
  %21 = load i64, ptr %1, align 8
  %..i = tail call i64 @llvm.umax.i64(i64 %19, i64 %21)
  store i64 %..i, ptr %20, align 8, !tbaa !19
  br label %22

22:                                               ; preds = %13, %18
  %23 = getelementptr inbounds nuw i8, ptr %0, i64 120
  %24 = load ptr, ptr %23, align 8, !tbaa !18
  %.not.i = icmp eq ptr %24, null
  br i1 %.not.i, label %28, label %25

25:                                               ; preds = %22
  %26 = getelementptr inbounds nuw i8, ptr %0, i64 48
  %27 = load i64, ptr %26, align 8, !tbaa !14
  store i64 %27, ptr %24, align 8, !tbaa !19
  br label %28

28:                                               ; preds = %25, %22
  %29 = getelementptr inbounds nuw i8, ptr %0, i64 128
  %30 = load ptr, ptr %29, align 8, !tbaa !20
  %.not23.i = icmp eq ptr %30, null
  br i1 %.not23.i, label %34, label %31

31:                                               ; preds = %28
  %32 = getelementptr inbounds nuw i8, ptr %0, i64 64
  %33 = load i64, ptr %32, align 8, !tbaa !17
  store i64 %33, ptr %30, align 8, !tbaa !19
  br label %34

34:                                               ; preds = %31, %28
  %35 = getelementptr inbounds nuw i8, ptr %0, i64 136
  %36 = load ptr, ptr %35, align 8, !tbaa !21
  %.not24.i = icmp eq ptr %36, null
  br i1 %.not24.i, label %40, label %37

37:                                               ; preds = %34
  %38 = getelementptr inbounds nuw i8, ptr %0, i64 24
  %39 = load i64, ptr %38, align 8, !tbaa !16
  store i64 %39, ptr %36, align 8, !tbaa !19
  br label %40

40:                                               ; preds = %37, %34
  %41 = getelementptr inbounds nuw i8, ptr %0, i64 144
  %42 = load ptr, ptr %41, align 8, !tbaa !22
  %.not25.i = icmp eq ptr %42, null
  br i1 %.not25.i, label %45, label %43

43:                                               ; preds = %40
  %44 = load i64, ptr %5, align 8, !tbaa !23
  store i64 %44, ptr %42, align 8, !tbaa !19
  br label %45

45:                                               ; preds = %43, %40
  %46 = getelementptr inbounds nuw i8, ptr %0, i64 152
  %47 = load ptr, ptr %46, align 8, !tbaa !24
  %.not26.i = icmp eq ptr %47, null
  br i1 %.not26.i, label %newreno_update_diag.exit, label %48

48:                                               ; preds = %45
  %49 = getelementptr inbounds nuw i8, ptr %0, i64 112
  %50 = load i32, ptr %49, align 8, !tbaa !25
  %.not27.i = icmp eq i32 %50, 0
  br i1 %.not27.i, label %51, label %.sink.split.i

51:                                               ; preds = %48
  %52 = getelementptr inbounds nuw i8, ptr %0, i64 64
  %53 = load i64, ptr %52, align 8, !tbaa !17
  %54 = getelementptr inbounds nuw i8, ptr %0, i64 72
  %55 = load i64, ptr %54, align 8, !tbaa !26
  %56 = icmp ult i64 %53, %55
  %..i16 = select i1 %56, i32 83, i32 65
  br label %.sink.split.i

.sink.split.i:                                    ; preds = %51, %48
  %.sink.i = phi i32 [ 82, %48 ], [ %..i16, %51 ]
  store i32 %.sink.i, ptr %47, align 4, !tbaa !27
  br label %newreno_update_diag.exit

newreno_update_diag.exit:                         ; preds = %.sink.split.i, %45, %2
  %.0 = phi i32 [ 0, %2 ], [ 1, %45 ], [ 1, %.sink.split.i ]
  ret i32 %.0
}